target datalayout = "e-m:e-p270:32:32-p271:32:32-p272:64:64-i64:64-i128:128-f80:128-n8:16:32:64-S128"
target triple = "x86_64-pc-linux-gnu"

%struct.CCaptionSubContext = type { ptr, ptr, i32, i32, i32, [2 x %struct.Screen], i32, i8, i8, i8, i8, i8, i8, [2 x %struct.AVBPrint], i32, i32, i32, i32, [2 x i64], i32, i64, [2 x i8], i32 }
%struct.Screen = type { [16 x [33 x i8]], [16 x [33 x i8]], [16 x [33 x i8]], [16 x [33 x i8]], [16 x [33 x i8]], i16 }
%struct.AVBPrint = type { ptr, i32, i32, i32, [1 x i8], [1000 x i8] }

@.str.17 = private unnamed_addr constant [52 x i8] c"Data ignored due to columns exceeding screen width\0A\00", align 1

; Function Attrs: nounwind uwtable
define internal void @write_char(ptr noundef %0, ptr noundef %1, i8 noundef signext %2) #1 {
  %4 = alloca ptr, align 8
  %5 = alloca ptr, align 8
  %6 = alloca i8, align 1
  %7 = alloca i8, align 1
  %8 = alloca ptr, align 8
  %9 = alloca ptr, align 8
  %10 = alloca ptr, align 8
  %11 = alloca ptr, align 8
  %12 = alloca ptr, align 8
  %13 = alloca i32, align 4
  store ptr %0, ptr %4, align 8, !tbaa !29
  store ptr %1, ptr %5, align 8, !tbaa !78
  store i8 %2, ptr %6, align 1, !tbaa !53
  call void @llvm.lifetime.start.p0(i64 1, ptr %7) #8
  %14 = load ptr, ptr %4, align 8, !tbaa !29
  %15 = getelementptr inbounds nuw %struct.CCaptionSubContext, ptr %14, i32 0, i32 8
  %16 = load i8, ptr %15, align 1, !tbaa !72
  store i8 %16, ptr %7, align 1, !tbaa !53
  call void @llvm.lifetime.start.p0(i64 8, ptr %8) #8
  %17 = load ptr, ptr %5, align 8, !tbaa !78
  %18 = getelementptr inbounds nuw %struct.Screen, ptr %17, i32 0, i32 0
  %19 = load ptr, ptr %4, align 8, !tbaa !29
  %20 = getelementptr inbounds nuw %struct.CCaptionSubContext, ptr %19, i32 0, i32 7
  %21 = load i8, ptr %20, align 4, !tbaa !36
  %22 = zext i8 %21 to i64
  %23 = getelementptr inbounds nuw [16 x [33 x i8]], ptr %18, i64 0, i64 %22
  %24 = getelementptr inbounds [33 x i8], ptr %23, i64 0, i64 0
  store ptr %24, ptr %8, align 8, !tbaa !51
  call void @llvm.lifetime.start.p0(i64 8, ptr %9) #8
  %25 = load ptr, ptr %5, align 8, !tbaa !78
  %26 = getelementptr inbounds nuw %struct.Screen, ptr %25, i32 0, i32 4
  %27 = load ptr, ptr %4, align 8, !tbaa !29
  %28 = getelementptr inbounds nuw %struct.CCaptionSubContext, ptr %27, i32 0, i32 7
  %29 = load i8, ptr %28, align 4, !tbaa !36
  %30 = zext i8 %29 to i64
  %31 = getelementptr inbounds nuw [16 x [33 x i8]], ptr %26, i64 0, i64 %30
  %32 = getelementptr inbounds [33 x i8], ptr %31, i64 0, i64 0
  store ptr %32, ptr %9, align 8, !tbaa !51
  call void @llvm.lifetime.start.p0(i64 8, ptr %10) #8
  %33 = load ptr, ptr %5, align 8, !tbaa !78
  %34 = getelementptr inbounds nuw %struct.Screen, ptr %33, i32 0, i32 2
  %35 = load ptr, ptr %4, align 8, !tbaa !29
  %36 = getelementptr inbounds nuw %struct.CCaptionSubContext, ptr %35, i32 0, i32 7
  %37 = load i8, ptr %36, align 4, !tbaa !36
  %38 = zext i8 %37 to i64
  %39 = getelementptr inbounds nuw [16 x [33 x i8]], ptr %34, i64 0, i64 %38
  %40 = getelementptr inbounds [33 x i8], ptr %39, i64 0, i64 0
  store ptr %40, ptr %10, align 8, !tbaa !51
  call void @llvm.lifetime.start.p0(i64 8, ptr %11) #8
  %41 = load ptr, ptr %5, align 8, !tbaa !78
  %42 = getelementptr inbounds nuw %struct.Screen, ptr %41, i32 0, i32 3
  %43 = load ptr, ptr %4, align 8, !tbaa !29
  %44 = getelementptr inbounds nuw %struct.CCaptionSubContext, ptr %43, i32 0, i32 7
  %45 = load i8, ptr %44, align 4, !tbaa !36
  %46 = zext i8 %45 to i64
  %47 = getelementptr inbounds nuw [16 x [33 x i8]], ptr %42, i64 0, i64 %46
  %48 = getelementptr inbounds [33 x i8], ptr %47, i64 0, i64 0
  store ptr %48, ptr %11, align 8, !tbaa !51
  call void @llvm.lifetime.start.p0(i64 8, ptr %12) #8
  %49 = load ptr, ptr %5, align 8, !tbaa !78
  %50 = getelementptr inbounds nuw %struct.Screen, ptr %49, i32 0, i32 1
  %51 = load ptr, ptr %4, align 8, !tbaa !29
  %52 = getelementptr inbounds nuw %struct.CCaptionSubContext, ptr %51, i32 0, i32 7
  %53 = load i8, ptr %52, align 4, !tbaa !36
  %54 = zext i8 %53 to i64
  %55 = getelementptr inbounds nuw [16 x [33 x i8]], ptr %50, i64 0, i64 %54
  %56 = getelementptr inbounds [33 x i8], ptr %55, i64 0, i64 0
  store ptr %56, ptr %12, align 8, !tbaa !51
  %57 = load i8, ptr %7, align 1, !tbaa !53
  %58 = zext i8 %57 to i32
  %59 = icmp slt i32 %58, 32
  br i1 %59, label %60, label %104

60:                                               ; preds = %3
  %61 = load i8, ptr %6, align 1, !tbaa !53
  %62 = load ptr, ptr %8, align 8, !tbaa !51
  %63 = load i8, ptr %7, align 1, !tbaa !53
  %64 = zext i8 %63 to i64
  %65 = getelementptr inbounds nuw i8, ptr %62, i64 %64
  store i8 %61, ptr %65, align 1, !tbaa !53
  %66 = load ptr, ptr %4, align 8, !tbaa !29
  %67 = getelementptr inbounds nuw %struct.CCaptionSubContext, ptr %66, i32 0, i32 11
  %68 = load i8, ptr %67, align 8, !tbaa !73
  %69 = load ptr, ptr %9, align 8, !tbaa !51
  %70 = load i8, ptr %7, align 1, !tbaa !53
  %71 = zext i8 %70 to i64
  %72 = getelementptr inbounds nuw i8, ptr %69, i64 %71
  store i8 %68, ptr %72, align 1, !tbaa !53
  %73 = load ptr, ptr %4, align 8, !tbaa !29
  %74 = getelementptr inbounds nuw %struct.CCaptionSubContext, ptr %73, i32 0, i32 9
  %75 = load i8, ptr %74, align 2, !tbaa !74
  %76 = load ptr, ptr %10, align 8, !tbaa !51
  %77 = load i8, ptr %7, align 1, !tbaa !53
  %78 = zext i8 %77 to i64
  %79 = getelementptr inbounds nuw i8, ptr %76, i64 %78
  store i8 %75, ptr %79, align 1, !tbaa !53
  %80 = load ptr, ptr %4, align 8, !tbaa !29
  %81 = getelementptr inbounds nuw %struct.CCaptionSubContext, ptr %80, i32 0, i32 10
  %82 = load i8, ptr %81, align 1, !tbaa !34
  %83 = load ptr, ptr %11, align 8, !tbaa !51
  %84 = load i8, ptr %7, align 1, !tbaa !53
  %85 = zext i8 %84 to i64
  %86 = getelementptr inbounds nuw i8, ptr %83, i64 %85
  store i8 %82, ptr %86, align 1, !tbaa !53
  %87 = load ptr, ptr %4, align 8, !tbaa !29
  %88 = getelementptr inbounds nuw %struct.CCaptionSubContext, ptr %87, i32 0, i32 12
  %89 = load i8, ptr %88, align 1, !tbaa !75
  %90 = load ptr, ptr %12, align 8, !tbaa !51
  %91 = load i8, ptr %7, align 1, !tbaa !53
  %92 = zext i8 %91 to i64
  %93 = getelementptr inbounds nuw i8, ptr %90, i64 %92
  store i8 %89, ptr %93, align 1, !tbaa !53
  %94 = load ptr, ptr %4, align 8, !tbaa !29
  %95 = getelementptr inbounds nuw %struct.CCaptionSubContext, ptr %94, i32 0, i32 12
  store i8 0, ptr %95, align 1, !tbaa !75
  %96 = load i8, ptr %6, align 1, !tbaa !53
  %97 = icmp ne i8 %96, 0
  br i1 %97, label %98, label %103

98:                                               ; preds = %60
  %99 = load ptr, ptr %4, align 8, !tbaa !29
  %100 = getelementptr inbounds nuw %struct.CCaptionSubContext, ptr %99, i32 0, i32 8
  %101 = load i8, ptr %100, align 1, !tbaa !72
  %102 = add i8 %101, 1
  store i8 %102, ptr %100, align 1, !tbaa !72
  br label %103

103:                                              ; preds = %98, %60
  store i32 1, ptr %13, align 4
  br label %122

104:                                              ; preds = %3
  %105 = load i8, ptr %7, align 1, !tbaa !53
  %106 = zext i8 %105 to i32
  %107 = icmp eq i32 %106, 32
  br i1 %107, label %108, label %118

108:                                              ; preds = %104
  %109 = load i8, ptr %6, align 1, !tbaa !53
  %110 = sext i8 %109 to i32
  %111 = icmp eq i32 %110, 0
  br i1 %111, label %112, label %118

112:                                              ; preds = %108
  %113 = load i8, ptr %6, align 1, !tbaa !53
  %114 = load ptr, ptr %8, align 8, !tbaa !51
  %115 = load i8, ptr %7, align 1, !tbaa !53
  %116 = zext i8 %115 to i64
  %117 = getelementptr inbounds nuw i8, ptr %114, i64 %116
  store i8 %113, ptr %117, align 1, !tbaa !53
  store i32 1, ptr %13, align 4
  br label %122

118:                                              ; preds = %108, %104
  %119 = load ptr, ptr %4, align 8, !tbaa !29
  %120 = getelementptr inbounds nuw %struct.CCaptionSubContext, ptr %119, i32 0, i32 1
  %121 = load ptr, ptr %120, align 8, !tbaa !31
  call void (ptr, i32, ptr, ...) @av_log(ptr noundef %121, i32 noundef 24, ptr noundef @.str.17)
  store i32 1, ptr %13, align 4
  br label %122

122:                                              ; preds = %118, %112, %103
  call void @llvm.lifetime.end.p0(i64 8, ptr %12) #8
  call void @llvm.lifetime.end.p0(i64 8, ptr %11) #8
  call void @llvm.lifetime.end.p0(i64 8, ptr %10) #8
  call void @llvm.lifetime.end.p0(i64 8, ptr %9) #8
  call void @llvm.lifetime.end.p0(i64 8, ptr %8) #8
  call void @llvm.lifetime.end.p0(i64 1, ptr %7) #8
  ret void
}

; Function Attrs: nounwind uwtable
define internal ptr @get_writing_screen(ptr noundef %0) #1 {
  %2 = alloca ptr, align 8
  %3 = alloca ptr, align 8
  store ptr %0, ptr %3, align 8, !tbaa !29
  %4 = load ptr, ptr %3, align 8, !tbaa !29
  %5 = getelementptr inbounds nuw %struct.CCaptionSubContext, ptr %4, i32 0, i32 17
  %6 = load i32, ptr %5, align 4, !tbaa !33
  switch i32 %6, label %28 [
    i32 0, label %7
    i32 1, label %19
    i32 2, label %19
    i32 3, label %19
  ]

7:                                                ; preds = %1
  %8 = load ptr, ptr %3, align 8, !tbaa !29
  %9 = getelementptr inbounds nuw %struct.CCaptionSubContext, ptr %8, i32 0, i32 5
  %10 = getelementptr inbounds [2 x %struct.Screen], ptr %9, i64 0, i64 0
  %11 = load ptr, ptr %3, align 8, !tbaa !29
  %12 = getelementptr inbounds nuw %struct.CCaptionSubContext, ptr %11, i32 0, i32 6
  %13 = load i32, ptr %12, align 8, !tbaa !76
  %14 = icmp ne i32 %13, 0
  %15 = xor i1 %14, true
  %16 = zext i1 %15 to i32
  %17 = sext i32 %16 to i64
  %18 = getelementptr inbounds %struct.Screen, ptr %10, i64 %17
  store ptr %18, ptr %2, align 8
  br label %29

19:                                               ; preds = %1, %1, %1
  %20 = load ptr, ptr %3, align 8, !tbaa !29
  %21 = getelementptr inbounds nuw %struct.CCaptionSubContext, ptr %20, i32 0, i32 5
  %22 = getelementptr inbounds [2 x %struct.Screen], ptr %21, i64 0, i64 0
  %23 = load ptr, ptr %3, align 8, !tbaa !29
  %24 = getelementptr inbounds nuw %struct.CCaptionSubContext, ptr %23, i32 0, i32 6
  %25 = load i32, ptr %24, align 8, !tbaa !76
  %26 = sext i32 %25 to i64
  %27 = getelementptr inbounds %struct.Screen, ptr %22, i64 %26
  store ptr %27, ptr %2, align 8
  br label %29

28:                                               ; preds = %1
  store ptr null, ptr %2, align 8
  br label %29

29:                                               ; preds = %28, %19, %7
  %30 = load ptr, ptr %2, align 8
  ret ptr %30
}

; Function Attrs: nounwind uwtable
define internal void @handle_delete_end_of_row(ptr noundef %0) #1 {
  %2 = alloca ptr, align 8
  %3 = alloca ptr, align 8
  store ptr %0, ptr %2, align 8, !tbaa !29
  call void @llvm.lifetime.start.p0(i64 8, ptr %3) #8
  %4 = load ptr, ptr %2, align 8, !tbaa !29
  %5 = call ptr @get_writing_screen(ptr noundef %4)
  store ptr %5, ptr %3, align 8, !tbaa !78
  %6 = load ptr, ptr %2, align 8, !tbaa !29
  %7 = load ptr, ptr %3, align 8, !tbaa !78
  call void @write_char(ptr noundef %6, ptr noundef %7, i8 noundef signext 0)
  call void @llvm.lifetime.end.p0(i64 8, ptr %3) #8
  ret void
}