; Function Attrs: nounwind uwtable
define internal fastcc void @handle_delete_end_of_row(ptr noundef captures(none) %0) unnamed_addr #1 {
  %2 = getelementptr inbounds nuw i8, ptr %0, i64 7388
  %3 = load i32, ptr %2, align 4, !tbaa !29
  switch i32 %3, label %get_writing_screen.exit [
    i32 0, label %4
    i32 1, label %10
    i32 2, label %10
    i32 3, label %10
  ]

4:                                                ; preds = %1
  %5 = getelementptr inbounds nuw i8, ptr %0, i64 28
  %6 = getelementptr inbounds nuw i8, ptr %0, i64 5312
  %7 = load i32, ptr %6, align 8, !tbaa !44
  %.not.i = icmp eq i32 %7, 0
  %8 = zext i1 %.not.i to i64
  %9 = getelementptr inbounds nuw %struct.Screen, ptr %5, i64 %8
  br label %get_writing_screen.exit

10:                                               ; preds = %1, %1, %1
  %11 = getelementptr inbounds nuw i8, ptr %0, i64 28
  %12 = getelementptr inbounds nuw i8, ptr %0, i64 5312
  %13 = load i32, ptr %12, align 8, !tbaa !44
  %14 = sext i32 %13 to i64
  %15 = getelementptr inbounds %struct.Screen, ptr %11, i64 %14
  br label %get_writing_screen.exit

get_writing_screen.exit:                          ; preds = %1, %4, %10
  %.0.i = phi ptr [ %15, %10 ], [ %9, %4 ], [ null, %1 ]
  %16 = getelementptr inbounds nuw i8, ptr %0, i64 5317
  %17 = load i8, ptr %16, align 1, !tbaa !48
  %18 = getelementptr inbounds nuw i8, ptr %0, i64 5316
  %19 = load i8, ptr %18, align 4, !tbaa !32
  %20 = zext i8 %19 to i64
  %21 = getelementptr inbounds nuw [16 x [33 x i8]], ptr %.0.i, i64 0, i64 %20
  %22 = icmp ult i8 %17, 32
  br i1 %22, label %23, label %46

23:                                               ; preds = %get_writing_screen.exit
  %24 = getelementptr inbounds nuw i8, ptr %.0.i, i64 528
  %25 = getelementptr inbounds nuw [16 x [33 x i8]], ptr %24, i64 0, i64 %20
  %26 = getelementptr inbounds nuw i8, ptr %.0.i, i64 1584
  %27 = getelementptr inbounds nuw [16 x [33 x i8]], ptr %26, i64 0, i64 %20
  %28 = getelementptr inbounds nuw i8, ptr %.0.i, i64 1056
  %29 = getelementptr inbounds nuw [16 x [33 x i8]], ptr %28, i64 0, i64 %20
  %30 = getelementptr inbounds nuw i8, ptr %.0.i, i64 2112
  %31 = getelementptr inbounds nuw [16 x [33 x i8]], ptr %30, i64 0, i64 %20
  %32 = zext nneg i8 %17 to i64
  %33 = getelementptr inbounds nuw i8, ptr %21, i64 %32
  store i8 0, ptr %33, align 1, !tbaa !42
  %34 = getelementptr inbounds nuw i8, ptr %0, i64 5320
  %35 = load i8, ptr %34, align 8, !tbaa !46
  %36 = getelementptr inbounds nuw i8, ptr %31, i64 %32
  store i8 %35, ptr %36, align 1, !tbaa !42
  %37 = getelementptr inbounds nuw i8, ptr %0, i64 5318
  %38 = load i8, ptr %37, align 2, !tbaa !45
  %39 = getelementptr inbounds nuw i8, ptr %29, i64 %32
  store i8 %38, ptr %39, align 1, !tbaa !42
  %40 = getelementptr inbounds nuw i8, ptr %0, i64 5319
  %41 = load i8, ptr %40, align 1, !tbaa !30
  %42 = getelementptr inbounds nuw i8, ptr %27, i64 %32
  store i8 %41, ptr %42, align 1, !tbaa !42
  %43 = getelementptr inbounds nuw i8, ptr %0, i64 5321
  %44 = load i8, ptr %43, align 1, !tbaa !47
  %45 = getelementptr inbounds nuw i8, ptr %25, i64 %32
  store i8 %44, ptr %45, align 1, !tbaa !42
  store i8 0, ptr %43, align 1, !tbaa !47
  br label %write_char.exit

46:                                               ; preds = %get_writing_screen.exit
  %47 = icmp eq i8 %17, 32
  br i1 %47, label %48, label %50

48:                                               ; preds = %46
  %49 = getelementptr inbounds nuw i8, ptr %21, i64 32
  store i8 0, ptr %49, align 1, !tbaa !42
  br label %write_char.exit

50:                                               ; preds = %46
  %51 = getelementptr inbounds nuw i8, ptr %0, i64 8
  %52 = load ptr, ptr %51, align 8, !tbaa !27
  tail call void (ptr, i32, ptr, ...) @av_log(ptr noundef %52, i32 noundef 24, ptr noundef nonnull @.str.17) #9
  br label %write_char.exit

write_char.exit:                                  ; preds = %23, %48, %50
  ret void
}